; Function Attrs: nounwind uwtable
define ptr @l_Array_get_x21___rarg(ptr noundef %0, ptr noundef readonly captures(none) %1, ptr noundef %2) local_unnamed_addr #0 {
  %4 = getelementptr i8, ptr %1, i64 8
  %.val = load i64, ptr %4, align 8, !tbaa !14
  %5 = shl i64 %.val, 1
  %6 = or disjoint i64 %5, 1
  %7 = inttoptr i64 %6 to ptr
  %8 = ptrtoint ptr %2 to i64
  %9 = and i64 %8, 1
  %.not = icmp eq i64 %9, 0
  br i1 %.not, label %lean_dec.exit, label %10, !prof !16

10:                                               ; preds = %3
  %11 = icmp ult ptr %2, %7
  br i1 %11, label %22, label %13

lean_dec.exit:                                    ; preds = %3
  %12 = tail call zeroext i1 @lean_nat_big_lt(ptr noundef %2, ptr noundef nonnull %7) #3
  br i1 %12, label %22, label %13

13:                                               ; preds = %10, %lean_dec.exit
  %14 = ptrtoint ptr %0 to i64
  %15 = and i64 %14, 1
  %.not11 = icmp eq i64 %15, 0
  br i1 %.not11, label %16, label %lean_inc.exit

16:                                               ; preds = %13
  %.val.i = load i32, ptr %0, align 4, !tbaa !4
  %17 = icmp sgt i32 %.val.i, 0
  br i1 %17, label %18, label %20, !prof !9

18:                                               ; preds = %16
  %19 = add nuw i32 %.val.i, 1
  store i32 %19, ptr %0, align 4, !tbaa !4
  br label %lean_inc.exit

20:                                               ; preds = %16
  %.not.i10 = icmp eq i32 %.val.i, 0
  br i1 %.not.i10, label %lean_inc.exit, label %21

21:                                               ; preds = %20
  tail call void @lean_inc_ref_cold(ptr noundef nonnull %0) #3
  br label %lean_inc.exit

22:                                               ; preds = %10, %lean_dec.exit
  %23 = lshr i64 %8, 1
  %24 = getelementptr inbounds nuw i8, ptr %1, i64 24
  %25 = getelementptr inbounds nuw [0 x ptr], ptr %24, i64 0, i64 %23
  %26 = load ptr, ptr %25, align 8, !tbaa !10
  %27 = ptrtoint ptr %26 to i64
  %28 = and i64 %27, 1
  %.not.i.i = icmp eq i64 %28, 0
  br i1 %.not.i.i, label %29, label %lean_inc.exit

29:                                               ; preds = %22
  %.val.i.i.i = load i32, ptr %26, align 4, !tbaa !4
  %30 = icmp sgt i32 %.val.i.i.i, 0
  br i1 %30, label %31, label %33, !prof !9

31:                                               ; preds = %29
  %32 = add nuw i32 %.val.i.i.i, 1
  store i32 %32, ptr %26, align 4, !tbaa !4
  br label %lean_inc.exit

33:                                               ; preds = %29
  %.not.i.i.i = icmp eq i32 %.val.i.i.i, 0
  br i1 %.not.i.i.i, label %lean_inc.exit, label %34

34:                                               ; preds = %33
  tail call void @lean_inc_ref_cold(ptr noundef nonnull %26) #3
  br label %lean_inc.exit

lean_inc.exit:                                    ; preds = %34, %33, %31, %22, %13, %18, %20, %21
  %.0 = phi ptr [ %0, %21 ], [ %0, %20 ], [ %0, %18 ], [ %0, %13 ], [ %26, %22 ], [ %26, %31 ], [ %26, %33 ], [ %26, %34 ]
  ret ptr %.0
}